target datalayout = "e-m:e-p270:32:32-p271:32:32-p272:64:64-i64:64-i128:128-f80:128-n8:16:32:64-S128"
target triple = "x86_64-pc-linux-gnu"

; Function Attrs: nounwind uwtable
define i32 @Gia_ManMuxCountOne(ptr noundef %0) #0 {
  %2 = alloca ptr, align 8
  %3 = alloca i32, align 4
  store ptr %0, ptr %2, align 8
  store i32 0, ptr %3, align 4
  br label %4

4:                                                ; preds = %16, %1
  %5 = load ptr, ptr %2, align 8
  %6 = load i8, ptr %5, align 1
  %7 = icmp ne i8 %6, 0
  br i1 %7, label %8, label %19

8:                                                ; preds = %4
  %9 = load ptr, ptr %2, align 8
  %10 = load i8, ptr %9, align 1
  %11 = sext i8 %10 to i32
  %12 = icmp eq i32 %11, 91
  %13 = zext i1 %12 to i32
  %14 = load i32, ptr %3, align 4
  %15 = add nsw i32 %14, %13
  store i32 %15, ptr %3, align 4
  br label %16

16:                                               ; preds = %8
  %17 = load ptr, ptr %2, align 8
  %18 = getelementptr inbounds i8, ptr %17, i32 1
  store ptr %18, ptr %2, align 8
  br label %4, !llvm.loop !17

19:                                               ; preds = %4
  %20 = load i32, ptr %3, align 4
  ret i32 %20
}